; Function Attrs: nounwind uwtable
define ptr @l_Array_foldlMUnsafe_fold___at___private_Lean_Compiler_IR_SimpCase_0__Lean_IR_addDefault___spec__1(ptr noundef %0, ptr noundef readonly captures(none) %1, i64 noundef %2, i64 noundef %3, ptr noundef %4) local_unnamed_addr #0 {
  %.not36 = icmp eq i64 %2, %3
  br i1 %.not36, label %._crit_edge, label %.lr.ph

.lr.ph:                                           ; preds = %5
  %6 = getelementptr inbounds nuw i8, ptr %1, i64 24
  br label %7

7:                                                ; preds = %.lr.ph, %lean_dec.exit
  %.02238 = phi i64 [ %2, %.lr.ph ], [ %21, %lean_dec.exit ]
  %.02437 = phi ptr [ %4, %.lr.ph ], [ %.226, %lean_dec.exit ]
  %8 = getelementptr inbounds nuw [0 x ptr], ptr %6, i64 0, i64 %.02238
  %9 = load ptr, ptr %8, align 8, !tbaa !4
  %10 = ptrtoint ptr %9 to i64
  %11 = and i64 %10, 1
  %.not.i27 = icmp eq i64 %11, 0
  br i1 %.not.i27, label %12, label %lean_array_uget.exit

12:                                               ; preds = %7
  %.val.i.i = load i32, ptr %9, align 4, !tbaa !8
  %13 = icmp sgt i32 %.val.i.i, 0
  br i1 %13, label %14, label %16, !prof !11

14:                                               ; preds = %12
  %15 = add nuw i32 %.val.i.i, 1
  store i32 %15, ptr %9, align 4, !tbaa !8
  br label %lean_array_uget.exit

16:                                               ; preds = %12
  %.not.i.i = icmp eq i32 %.val.i.i, 0
  br i1 %.not.i.i, label %lean_array_uget.exit, label %17

17:                                               ; preds = %16
  tail call void @lean_inc_ref_cold(ptr noundef nonnull %9) #3
  br label %lean_array_uget.exit

lean_array_uget.exit:                             ; preds = %7, %14, %16, %17
  %18 = tail call ptr @l_Lean_IR_Alt_body(ptr noundef %9) #3
  %19 = tail call ptr @l_Lean_IR_Alt_body(ptr noundef %0) #3
  %20 = tail call zeroext i8 @l_Lean_IR_FnBody_beq(ptr noundef %18, ptr noundef %19) #3
  %21 = add i64 %.02238, 1
  %22 = icmp eq i8 %20, 0
  br i1 %22, label %23, label %25

23:                                               ; preds = %lean_array_uget.exit
  %24 = tail call ptr @lean_array_push(ptr noundef %.02437, ptr noundef %9) #3
  br label %lean_dec.exit

25:                                               ; preds = %lean_array_uget.exit
  br i1 %.not.i27, label %26, label %lean_dec.exit

26:                                               ; preds = %25
  %27 = load i32, ptr %9, align 4, !tbaa !8
  %28 = icmp sgt i32 %27, 1
  br i1 %28, label %29, label %31, !prof !11

29:                                               ; preds = %26
  %30 = add nsw i32 %27, -1
  store i32 %30, ptr %9, align 4, !tbaa !8
  br label %lean_dec.exit

31:                                               ; preds = %26
  %.not.i = icmp eq i32 %27, 0
  br i1 %.not.i, label %lean_dec.exit, label %32

32:                                               ; preds = %31
  tail call void @lean_dec_ref_cold(ptr noundef nonnull %9) #3
  br label %lean_dec.exit

lean_dec.exit:                                    ; preds = %25, %29, %31, %32, %23
  %.226 = phi ptr [ %24, %23 ], [ %.02437, %32 ], [ %.02437, %31 ], [ %.02437, %29 ], [ %.02437, %25 ]
  %.not = icmp eq i64 %21, %3
  br i1 %.not, label %._crit_edge, label %7

._crit_edge:                                      ; preds = %lean_dec.exit, %5
  %.024.lcssa = phi ptr [ %4, %5 ], [ %.226, %lean_dec.exit ]
  ret ptr %.024.lcssa
}